target datalayout = "e-m:e-p270:32:32-p271:32:32-p272:64:64-i64:64-i128:128-f80:128-n8:16:32:64-S128"
target triple = "x86_64-pc-linux-gnu"

%struct.RFile = type { %struct.RBasic, ptr }
%struct.RBasic = type { i64, i64 }
%struct.rb_io = type { i64, ptr, i32, i32, i32, i32, i64, ptr, %struct.rb_io_internal_buffer, %struct.rb_io_internal_buffer, i64, %struct.rb_io_encoding, ptr, %struct.rb_io_internal_buffer, ptr, i64, i32, i32, i64, i64, i64 }
%struct.rb_io_encoding = type { ptr, ptr, i32, i64 }
%struct.rb_io_internal_buffer = type <{ ptr, i32, i32, i32 }>
%struct.iomsg_arg = type { i32, %struct.msghdr }
%struct.msghdr = type { ptr, i32, ptr, i64, ptr, i64, i32 }
%struct.iovec = type { ptr, i64 }
%union.anon.16 = type { %struct.cmsghdr, [24 x i8] }
%struct.cmsghdr = type { i64, i32, i32, [0 x i8] }
%struct.rbimpl_size_mul_overflow_tag = type { i8, i64 }

@rb_cIO = external global i64, align 8
@rb_eTypeError = external global i64, align 8
@.str.16 = private unnamed_addr constant [31 x i8] c"neither IO nor file descriptor\00", align 1
@.str.17 = private unnamed_addr constant [11 x i8] c"sendmsg(2)\00", align 1

; Function Attrs: alwaysinline nounwind
define internal ptr @memcpy.inline(ptr noalias nonnull %0, ptr noalias nonnull %1, i64 %2) #2 {
  %4 = alloca ptr, align 8
  %5 = alloca ptr, align 8
  %6 = alloca i64, align 8
  store ptr %0, ptr %4, align 8, !tbaa !36
  store ptr %1, ptr %5, align 8, !tbaa !36
  store i64 %2, ptr %6, align 8, !tbaa !6
  %7 = load ptr, ptr %4, align 8, !tbaa !36
  %8 = load ptr, ptr %5, align 8, !tbaa !36
  %9 = load i64, ptr %6, align 8, !tbaa !6
  %10 = load ptr, ptr %4, align 8, !tbaa !36
  %11 = call i64 @llvm.objectsize.i64.p0(ptr %10, i1 false, i1 true, i1 false)
  %12 = call ptr @__memcpy_chk(ptr noundef %7, ptr noundef %8, i64 noundef %9, i64 noundef %11) #18
  ret ptr %12
}

; Function Attrs: inlinehint nounwind sspstrong willreturn memory(none) uwtable
define internal { i8, i64 } @rbimpl_size_mul_overflow(i64 noundef %0, i64 noundef %1) #10 {
  %3 = alloca %struct.rbimpl_size_mul_overflow_tag, align 8
  %4 = alloca i64, align 8
  %5 = alloca i64, align 8
  store i64 %0, ptr %4, align 8, !tbaa !6
  store i64 %1, ptr %5, align 8, !tbaa !6
  call void @llvm.memset.p0.i64(ptr align 8 %3, i8 0, i64 16, i1 false)
  %6 = load i64, ptr %4, align 8, !tbaa !6
  %7 = load i64, ptr %5, align 8, !tbaa !6
  %8 = getelementptr inbounds nuw %struct.rbimpl_size_mul_overflow_tag, ptr %3, i32 0, i32 1
  %9 = call { i64, i1 } @llvm.umul.with.overflow.i64(i64 %6, i64 %7)
  %10 = extractvalue { i64, i1 } %9, 1
  %11 = extractvalue { i64, i1 } %9, 0
  store i64 %11, ptr %8, align 8
  %12 = getelementptr inbounds nuw %struct.rbimpl_size_mul_overflow_tag, ptr %3, i32 0, i32 0
  %13 = zext i1 %10 to i8
  store i8 %13, ptr %12, align 8, !tbaa !64
  %14 = load { i8, i64 }, ptr %3, align 8
  ret { i8, i64 } %14
}

; Function Attrs: inlinehint nounwind sspstrong memory(argmem: readwrite, inaccessiblemem: readwrite) uwtable
define internal nonnull ptr @ruby_nonempty_memcpy(ptr noundef nonnull %0, ptr noundef %1, i64 noundef %2) #5 {
  %4 = alloca ptr, align 8
  %5 = alloca ptr, align 8
  %6 = alloca ptr, align 8
  %7 = alloca i64, align 8
  store ptr %0, ptr %5, align 8, !tbaa !36
  store ptr %1, ptr %6, align 8, !tbaa !36
  store i64 %2, ptr %7, align 8, !tbaa !6
  %8 = load i64, ptr %7, align 8, !tbaa !6
  %9 = icmp ne i64 %8, 0
  br i1 %9, label %10, label %15

10:                                               ; preds = %3
  %11 = load ptr, ptr %5, align 8, !tbaa !36
  %12 = load ptr, ptr %6, align 8, !tbaa !36
  %13 = load i64, ptr %7, align 8, !tbaa !6
  %14 = call ptr @memcpy.inline(ptr noundef %11, ptr noundef %12, i64 noundef %13) #18
  store ptr %14, ptr %4, align 8
  br label %17

15:                                               ; preds = %3
  %16 = load ptr, ptr %5, align 8, !tbaa !36
  store ptr %16, ptr %4, align 8
  br label %17

17:                                               ; preds = %15, %10
  %18 = load ptr, ptr %4, align 8
  ret ptr %18
}

; Function Attrs: alwaysinline nounwind
define internal ptr @memset.inline(ptr nonnull %0, i32 %1, i64 %2) #2 {
  %4 = alloca ptr, align 8
  %5 = alloca i32, align 4
  %6 = alloca i64, align 8
  store ptr %0, ptr %4, align 8, !tbaa !36
  store i32 %1, ptr %5, align 4, !tbaa !10
  store i64 %2, ptr %6, align 8, !tbaa !6
  %7 = load ptr, ptr %4, align 8, !tbaa !36
  %8 = load i32, ptr %5, align 4, !tbaa !10
  %9 = load i64, ptr %6, align 8, !tbaa !6
  %10 = load ptr, ptr %4, align 8, !tbaa !36
  %11 = call i64 @llvm.objectsize.i64.p0(ptr %10, i1 false, i1 true, i1 false)
  %12 = call ptr @__memset_chk(ptr noundef %7, i32 noundef %8, i64 noundef %9, i64 noundef %11) #18
  ret ptr %12
}

; Function Attrs: inlinehint nounwind sspstrong uwtable
define internal i64 @rbimpl_size_mul_or_raise(i64 noundef %0, i64 noundef %1) #6 {
  %3 = alloca i64, align 8
  %4 = alloca i64, align 8
  %5 = alloca %struct.rbimpl_size_mul_overflow_tag, align 8
  store i64 %0, ptr %3, align 8, !tbaa !6
  store i64 %1, ptr %4, align 8, !tbaa !6
  call void @llvm.lifetime.start.p0(i64 16, ptr %5) #18
  %6 = load i64, ptr %3, align 8, !tbaa !6
  %7 = load i64, ptr %4, align 8, !tbaa !6
  %8 = call { i8, i64 } @rbimpl_size_mul_overflow(i64 noundef %6, i64 noundef %7) #23
  %9 = getelementptr inbounds nuw { i8, i64 }, ptr %5, i32 0, i32 0
  %10 = extractvalue { i8, i64 } %8, 0
  store i8 %10, ptr %9, align 8
  %11 = getelementptr inbounds nuw { i8, i64 }, ptr %5, i32 0, i32 1
  %12 = extractvalue { i8, i64 } %8, 1
  store i64 %12, ptr %11, align 8
  %13 = getelementptr inbounds nuw %struct.rbimpl_size_mul_overflow_tag, ptr %5, i32 0, i32 0
  %14 = load i8, ptr %13, align 8, !tbaa !64, !range !67, !noundef !68
  %15 = trunc i8 %14 to i1
  %16 = xor i1 %15, true
  %17 = xor i1 %16, true
  %18 = xor i1 %17, true
  %19 = zext i1 %18 to i32
  %20 = sext i32 %19 to i64
  %21 = call i64 @llvm.expect.i64(i64 %20, i64 1)
  %22 = icmp ne i64 %21, 0
  br i1 %22, label %23, label %26

23:                                               ; preds = %2
  %24 = getelementptr inbounds nuw %struct.rbimpl_size_mul_overflow_tag, ptr %5, i32 0, i32 1
  %25 = load i64, ptr %24, align 8, !tbaa !69
  call void @llvm.lifetime.end.p0(i64 16, ptr %5) #18
  ret i64 %25

26:                                               ; preds = %2
  %27 = load i64, ptr %3, align 8, !tbaa !6
  %28 = load i64, ptr %4, align 8, !tbaa !6
  call void @ruby_malloc_size_overflow(i64 noundef %27, i64 noundef %28) #20
  unreachable
}

; Function Attrs: inlinehint nounwind sspstrong uwtable
define internal i32 @RB_FIX2INT(i64 noundef %0) #6 {
  %2 = alloca i64, align 8
  %3 = alloca i64, align 8
  store i64 %0, ptr %2, align 8, !tbaa !6
  call void @llvm.lifetime.start.p0(i64 8, ptr %3) #18
  %4 = load i64, ptr %2, align 8, !tbaa !6
  %5 = call i64 @rb_fix2int(i64 noundef %4)
  store i64 %5, ptr %3, align 8, !tbaa !6
  %6 = load i64, ptr %3, align 8, !tbaa !6
  %7 = trunc i64 %6 to i32
  call void @llvm.lifetime.end.p0(i64 8, ptr %3) #18
  ret i32 %7
}

; Function Attrs: inlinehint nounwind sspstrong willreturn memory(none) uwtable
define internal zeroext i1 @RB_FIXNUM_P(i64 noundef %0) #10 {
  %2 = alloca i64, align 8
  store i64 %0, ptr %2, align 8, !tbaa !6
  %3 = load i64, ptr %2, align 8, !tbaa !6
  %4 = and i64 %3, 1
  %5 = icmp ne i64 %4, 0
  ret i1 %5
}

; Function Attrs: nounwind sspstrong uwtable
define internal i64 @unix_send_io(i64 noundef %0, i64 noundef %1) #0 {
  %3 = alloca i64, align 8
  %4 = alloca i64, align 8
  %5 = alloca i32, align 4
  %6 = alloca ptr, align 8
  %7 = alloca %struct.iomsg_arg, align 8
  %8 = alloca [1 x %struct.iovec], align 16
  %9 = alloca [1 x i8], align 1
  %10 = alloca %union.anon.16, align 8
  %11 = alloca ptr, align 8
  store i64 %0, ptr %3, align 8, !tbaa !6
  store i64 %1, ptr %4, align 8, !tbaa !6
  call void @llvm.lifetime.start.p0(i64 4, ptr %5) #18
  call void @llvm.lifetime.start.p0(i64 8, ptr %6) #18
  call void @llvm.lifetime.start.p0(i64 64, ptr %7) #18
  call void @llvm.lifetime.start.p0(i64 16, ptr %8) #18
  call void @llvm.lifetime.start.p0(i64 1, ptr %9) #18
  call void @llvm.lifetime.start.p0(i64 40, ptr %10) #18
  %12 = load i64, ptr %4, align 8, !tbaa !6
  %13 = load i64, ptr @rb_cIO, align 8, !tbaa !6
  %14 = call i64 @rb_obj_is_kind_of(i64 noundef %12, i64 noundef %13)
  %15 = icmp ne i64 %14, 0
  br i1 %15, label %16, label %25

16:                                               ; preds = %2
  call void @llvm.lifetime.start.p0(i64 8, ptr %11) #18
  %17 = load i64, ptr %4, align 8, !tbaa !6
  %18 = call i64 @rb_io_taint_check(i64 noundef %17)
  %19 = inttoptr i64 %18 to ptr
  %20 = getelementptr inbounds nuw %struct.RFile, ptr %19, i32 0, i32 1
  %21 = load ptr, ptr %20, align 8, !tbaa !18
  store ptr %21, ptr %11, align 8, !tbaa !22
  call void @rb_io_check_closed(ptr noundef %21)
  %22 = load ptr, ptr %11, align 8, !tbaa !22
  %23 = getelementptr inbounds nuw %struct.rb_io, ptr %22, i32 0, i32 2
  %24 = load i32, ptr %23, align 8, !tbaa !42
  store i32 %24, ptr %5, align 4, !tbaa !10
  call void @llvm.lifetime.end.p0(i64 8, ptr %11) #18
  br label %34

25:                                               ; preds = %2
  %26 = load i64, ptr %4, align 8, !tbaa !6
  %27 = call zeroext i1 @RB_FIXNUM_P(i64 noundef %26) #23
  br i1 %27, label %28, label %31

28:                                               ; preds = %25
  %29 = load i64, ptr %4, align 8, !tbaa !6
  %30 = call i32 @RB_FIX2INT(i64 noundef %29)
  store i32 %30, ptr %5, align 4, !tbaa !10
  br label %33

31:                                               ; preds = %25
  %32 = load i64, ptr @rb_eTypeError, align 8, !tbaa !6
  call void (i64, ptr, ...) @rb_raise(i64 noundef %32, ptr noundef @.str.16) #20
  unreachable

33:                                               ; preds = %28
  br label %34

34:                                               ; preds = %33, %16
  %35 = load i64, ptr %3, align 8, !tbaa !6
  %36 = call i64 @rb_io_taint_check(i64 noundef %35)
  %37 = inttoptr i64 %36 to ptr
  %38 = getelementptr inbounds nuw %struct.RFile, ptr %37, i32 0, i32 1
  %39 = load ptr, ptr %38, align 8, !tbaa !18
  store ptr %39, ptr %6, align 8, !tbaa !22
  call void @rb_io_check_closed(ptr noundef %39)
  %40 = getelementptr inbounds nuw %struct.iomsg_arg, ptr %7, i32 0, i32 1
  %41 = getelementptr inbounds nuw %struct.msghdr, ptr %40, i32 0, i32 0
  store ptr null, ptr %41, align 8, !tbaa !45
  %42 = getelementptr inbounds nuw %struct.iomsg_arg, ptr %7, i32 0, i32 1
  %43 = getelementptr inbounds nuw %struct.msghdr, ptr %42, i32 0, i32 1
  store i32 0, ptr %43, align 8, !tbaa !49
  %44 = getelementptr inbounds [1 x i8], ptr %9, i64 0, i64 0
  store i8 0, ptr %44, align 1, !tbaa !23
  %45 = getelementptr inbounds [1 x i8], ptr %9, i64 0, i64 0
  %46 = getelementptr inbounds [1 x %struct.iovec], ptr %8, i64 0, i64 0
  %47 = getelementptr inbounds nuw %struct.iovec, ptr %46, i32 0, i32 0
  store ptr %45, ptr %47, align 16, !tbaa !50
  %48 = getelementptr inbounds [1 x %struct.iovec], ptr %8, i64 0, i64 0
  %49 = getelementptr inbounds nuw %struct.iovec, ptr %48, i32 0, i32 1
  store i64 1, ptr %49, align 8, !tbaa !52
  %50 = getelementptr inbounds [1 x %struct.iovec], ptr %8, i64 0, i64 0
  %51 = getelementptr inbounds nuw %struct.iomsg_arg, ptr %7, i32 0, i32 1
  %52 = getelementptr inbounds nuw %struct.msghdr, ptr %51, i32 0, i32 2
  store ptr %50, ptr %52, align 8, !tbaa !53
  %53 = getelementptr inbounds nuw %struct.iomsg_arg, ptr %7, i32 0, i32 1
  %54 = getelementptr inbounds nuw %struct.msghdr, ptr %53, i32 0, i32 3
  store i64 1, ptr %54, align 8, !tbaa !54
  %55 = getelementptr inbounds nuw %struct.iomsg_arg, ptr %7, i32 0, i32 1
  %56 = getelementptr inbounds nuw %struct.msghdr, ptr %55, i32 0, i32 4
  store ptr %10, ptr %56, align 8, !tbaa !55
  %57 = getelementptr inbounds nuw %struct.iomsg_arg, ptr %7, i32 0, i32 1
  %58 = getelementptr inbounds nuw %struct.msghdr, ptr %57, i32 0, i32 5
  store i64 20, ptr %58, align 8, !tbaa !56
  %59 = getelementptr inbounds nuw %struct.iomsg_arg, ptr %7, i32 0, i32 1
  %60 = getelementptr inbounds nuw %struct.msghdr, ptr %59, i32 0, i32 6
  store i32 0, ptr %60, align 8, !tbaa !57
  %61 = call i64 @rbimpl_size_mul_or_raise(i64 noundef 1, i64 noundef 40)
  %62 = call ptr @memset.inline(ptr noundef %10, i32 noundef 0, i64 noundef %61) #18
  %63 = getelementptr inbounds nuw %struct.cmsghdr, ptr %10, i32 0, i32 0
  store i64 20, ptr %63, align 8, !tbaa !23
  %64 = getelementptr inbounds nuw %struct.cmsghdr, ptr %10, i32 0, i32 1
  store i32 1, ptr %64, align 8, !tbaa !23
  %65 = getelementptr inbounds nuw %struct.cmsghdr, ptr %10, i32 0, i32 2
  store i32 1, ptr %65, align 4, !tbaa !23
  %66 = getelementptr inbounds nuw %struct.cmsghdr, ptr %10, i32 0, i32 3
  %67 = getelementptr inbounds [0 x i8], ptr %66, i64 0, i64 0
  %68 = call nonnull ptr @ruby_nonempty_memcpy(ptr noundef %67, ptr noundef %5, i64 noundef 4) #21
  %69 = load ptr, ptr %6, align 8, !tbaa !22
  %70 = getelementptr inbounds nuw %struct.rb_io, ptr %69, i32 0, i32 2
  %71 = load i32, ptr %70, align 8, !tbaa !42
  %72 = getelementptr inbounds nuw %struct.iomsg_arg, ptr %7, i32 0, i32 0
  store i32 %71, ptr %72, align 8, !tbaa !58
  br label %73

73:                                               ; preds = %87, %34
  %74 = load ptr, ptr %6, align 8, !tbaa !22
  %75 = call i64 @rb_io_blocking_region(ptr noundef %74, ptr noundef @sendmsg_blocking, ptr noundef %7)
  %76 = trunc i64 %75 to i32
  %77 = icmp eq i32 %76, -1
  br i1 %77, label %78, label %88

78:                                               ; preds = %73
  %79 = getelementptr inbounds nuw %struct.iomsg_arg, ptr %7, i32 0, i32 0
  %80 = load i32, ptr %79, align 8, !tbaa !58
  %81 = call i32 @rb_io_wait_writable(i32 noundef %80)
  %82 = icmp ne i32 %81, 0
  br i1 %82, label %87, label %83

83:                                               ; preds = %78
  %84 = load ptr, ptr %6, align 8, !tbaa !22
  %85 = getelementptr inbounds nuw %struct.rb_io, ptr %84, i32 0, i32 6
  %86 = load i64, ptr %85, align 8, !tbaa !28
  call void @rsock_sys_fail_path(ptr noundef @.str.17, i64 noundef %86) #20
  unreachable

87:                                               ; preds = %78
  br label %73, !llvm.loop !59

88:                                               ; preds = %73
  call void @llvm.lifetime.end.p0(i64 40, ptr %10) #18
  call void @llvm.lifetime.end.p0(i64 1, ptr %9) #18
  call void @llvm.lifetime.end.p0(i64 16, ptr %8) #18
  call void @llvm.lifetime.end.p0(i64 64, ptr %7) #18
  call void @llvm.lifetime.end.p0(i64 8, ptr %6) #18
  call void @llvm.lifetime.end.p0(i64 4, ptr %5) #18
  ret i64 4
}