; Function Attrs: nounwind sspstrong uwtable
define internal noundef i64 @unix_send_io(i64 noundef %0, i64 noundef %1) #0 {
  %3 = alloca %struct.iomsg_arg, align 8
  %4 = alloca [1 x %struct.iovec], align 16
  %5 = alloca [1 x i8], align 1
  %6 = alloca %union.anon.16, align 8
  call void @llvm.lifetime.start.p0(i64 64, ptr nonnull %3) #7
  call void @llvm.lifetime.start.p0(i64 16, ptr nonnull %4) #7
  call void @llvm.lifetime.start.p0(i64 1, ptr nonnull %5) #7
  call void @llvm.lifetime.start.p0(i64 40, ptr nonnull %6) #7
  %7 = load i64, ptr @rb_cIO, align 8, !tbaa !17
  %8 = tail call i64 @rb_obj_is_kind_of(i64 noundef %1, i64 noundef %7) #7
  %.not = icmp eq i64 %8, 0
  br i1 %.not, label %16, label %9

9:                                                ; preds = %2
  %10 = tail call i64 @rb_io_taint_check(i64 noundef %1) #7
  %11 = inttoptr i64 %10 to ptr
  %12 = getelementptr inbounds nuw i8, ptr %11, i64 16
  %13 = load ptr, ptr %12, align 8, !tbaa !25
  tail call void @rb_io_check_closed(ptr noundef %13) #7
  %14 = getelementptr inbounds nuw i8, ptr %13, i64 16
  %15 = load i32, ptr %14, align 8, !tbaa !44
  br label %23

16:                                               ; preds = %2
  %17 = and i64 %1, 1
  %.not9 = icmp eq i64 %17, 0
  br i1 %.not9, label %21, label %18

18:                                               ; preds = %16
  %19 = tail call i64 @rb_fix2int(i64 noundef %1) #7
  %20 = trunc i64 %19 to i32
  br label %23

21:                                               ; preds = %16
  %22 = load i64, ptr @rb_eTypeError, align 8, !tbaa !17
  tail call void (i64, ptr, ...) @rb_raise(i64 noundef %22, ptr noundef nonnull @.str.16) #8
  unreachable

23:                                               ; preds = %18, %9
  %storemerge = phi i32 [ %20, %18 ], [ %15, %9 ]
  %24 = tail call i64 @rb_io_taint_check(i64 noundef %0) #7
  %25 = inttoptr i64 %24 to ptr
  %26 = getelementptr inbounds nuw i8, ptr %25, i64 16
  %27 = load ptr, ptr %26, align 8, !tbaa !25
  tail call void @rb_io_check_closed(ptr noundef %27) #7
  %28 = getelementptr inbounds nuw i8, ptr %3, i64 8
  store ptr null, ptr %28, align 8, !tbaa !45
  %29 = getelementptr inbounds nuw i8, ptr %3, i64 16
  store i32 0, ptr %29, align 8, !tbaa !49
  store i8 0, ptr %5, align 1, !tbaa !16
  store ptr %5, ptr %4, align 16, !tbaa !50
  %30 = getelementptr inbounds nuw i8, ptr %4, i64 8
  store i64 1, ptr %30, align 8, !tbaa !52
  %31 = getelementptr inbounds nuw i8, ptr %3, i64 24
  store ptr %4, ptr %31, align 8, !tbaa !53
  %32 = getelementptr inbounds nuw i8, ptr %3, i64 32
  store i64 1, ptr %32, align 8, !tbaa !54
  %33 = getelementptr inbounds nuw i8, ptr %3, i64 40
  store ptr %6, ptr %33, align 8, !tbaa !55
  %34 = getelementptr inbounds nuw i8, ptr %3, i64 48
  store i64 20, ptr %34, align 8, !tbaa !56
  %35 = getelementptr inbounds nuw i8, ptr %3, i64 56
  store i32 0, ptr %35, align 8, !tbaa !57
  %36 = getelementptr inbounds nuw i8, ptr %6, i64 16
  call void @llvm.memset.p0.i64(ptr noundef nonnull align 8 dereferenceable(40) %36, i8 noundef 0, i64 noundef 24, i1 noundef false) #7
  store i64 20, ptr %6, align 8, !tbaa !16
  %37 = getelementptr inbounds nuw i8, ptr %6, i64 8
  store i32 1, ptr %37, align 8, !tbaa !16
  %38 = getelementptr inbounds nuw i8, ptr %6, i64 12
  store i32 1, ptr %38, align 4, !tbaa !16
  %39 = getelementptr inbounds nuw i8, ptr %6, i64 16
  store i32 %storemerge, ptr %39, align 8
  %40 = getelementptr inbounds nuw i8, ptr %27, i64 16
  %41 = load i32, ptr %40, align 8, !tbaa !44
  store i32 %41, ptr %3, align 8, !tbaa !58
  br label %42

42:                                               ; preds = %46, %23
  %43 = call i64 @rb_io_blocking_region(ptr noundef %27, ptr noundef nonnull @sendmsg_blocking, ptr noundef nonnull %3) #7
  %44 = and i64 %43, 4294967295
  %45 = icmp eq i64 %44, 4294967295
  br i1 %45, label %46, label %52

46:                                               ; preds = %42
  %47 = load i32, ptr %3, align 8, !tbaa !58
  %48 = call i32 @rb_io_wait_writable(i32 noundef %47) #7
  %.not8 = icmp eq i32 %48, 0
  br i1 %.not8, label %49, label %42, !llvm.loop !59

49:                                               ; preds = %46
  %50 = getelementptr inbounds nuw i8, ptr %27, i64 32
  %51 = load i64, ptr %50, align 8, !tbaa !36
  call void @rsock_sys_fail_path(ptr noundef nonnull @.str.17, i64 noundef %51) #8
  unreachable

52:                                               ; preds = %42
  call void @llvm.lifetime.end.p0(i64 40, ptr nonnull %6) #7
  call void @llvm.lifetime.end.p0(i64 1, ptr nonnull %5) #7
  call void @llvm.lifetime.end.p0(i64 16, ptr nonnull %4) #7
  call void @llvm.lifetime.end.p0(i64 64, ptr nonnull %3) #7
  ret i64 4
}